(imatplotlib.font_manager
FontManager
p1
(dp2
S'ttffiles'
p3
(lp4
S'/usr/share/matplotlib/mpl-data/fonts/ttf/cmb10.ttf'
p5
aS'/usr/share/matplotlib/mpl-data/fonts/ttf/cmex10.ttf'
p6
aS'/usr/share/matplotlib/mpl-data/fonts/ttf/STIXNonUniIta.ttf'
p7
aS'/usr/share/matplotlib/mpl-data/fonts/ttf/STIXNonUni.ttf'
p8
aS'/usr/share/matplotlib/mpl-data/fonts/ttf/STIXSiz5Sym.ttf'
p9
aS'/usr/share/matplotlib/mpl-data/fonts/ttf/cmtt10.ttf'
p10
aS'/usr/share/matplotlib/mpl-data/fonts/ttf/STIXGeneral.ttf'
p11
aS'/usr/share/matplotlib/mpl-data/fonts/ttf/STIXNonUniBolIta.ttf'
p12
aS'/usr/share/matplotlib/mpl-data/fonts/ttf/STIXSiz3SymBol.ttf'
p13
aS'/usr/share/matplotlib/mpl-data/fonts/ttf/STIXSiz3Sym.ttf'
p14
aS'/usr/share/matplotlib/mpl-data/fonts/ttf/STIXSiz2Sym.ttf'
p15
aS'/usr/share/matplotlib/mpl-data/fonts/ttf/STIXGeneralBol.ttf'
p16
aS'/usr/share/matplotlib/mpl-data/fonts/ttf/STIXSiz4SymBol.ttf'
p17
aS'/usr/share/matplotlib/mpl-data/fonts/ttf/STIXSiz2SymBol.ttf'
p18
aS'/usr/share/matplotlib/mpl-data/fonts/ttf/cmsy10.ttf'
p19
aS'/usr/share/matplotlib/mpl-data/fonts/ttf/cmss10.ttf'
p20
aS'/usr/share/matplotlib/mpl-data/fonts/ttf/STIXSiz1SymBol.ttf'
p21
aS'/usr/share/matplotlib/mpl-data/fonts/ttf/STIXGeneralItalic.ttf'
p22
aS'/usr/share/matplotlib/mpl-data/fonts/ttf/cmr10.ttf'
p23
aS'/usr/share/matplotlib/mpl-data/fonts/ttf/STIXSiz4Sym.ttf'
p24
aS'/usr/share/matplotlib/mpl-data/fonts/ttf/STIXSiz1Sym.ttf'
p25
aS'/usr/share/matplotlib/mpl-data/fonts/ttf/cmmi10.ttf'
p26
aS'/usr/share/matplotlib/mpl-data/fonts/ttf/STIXNonUniBol.ttf'
p27
aS'/usr/share/matplotlib/mpl-data/fonts/ttf/STIXGeneralBolIta.ttf'
p28
aS'/usr/share/fonts/truetype/ttf-liberation/LiberationSans-Bold.ttf'
p29
aS'/usr/share/fonts/truetype/ttf-dejavu/DejaVuSansMono-Bold.ttf'
p30
aS'/usr/share/fonts/truetype/ttf-dejavu/DejaVuSansCondensed-Oblique.ttf'
p31
aS'/usr/share/fonts/truetype/ttf-dejavu/DejaVuSansCondensed.ttf'
p32
aS'/usr/share/fonts/truetype/ttf-dejavu/DejaVuSerifCondensed-Italic.ttf'
p33
aS'/usr/share/fonts/truetype/ttf-liberation/LiberationMono-Bold.ttf'
p34
aS'/usr/share/fonts/truetype/ttf-dejavu/DejaVuSerif-BoldItalic.ttf'
p35
aS'/usr/share/fonts/truetype/ttf-dejavu/DejaVuSerifCondensed-BoldItalic.ttf'
p36
aS'/usr/share/fonts/truetype/ttf-dejavu/DejaVuSansMono.ttf'
p37
aS'/usr/share/fonts/truetype/ttf-dejavu/DejaVuSansMono-Oblique.ttf'
p38
aS'/usr/share/fonts/truetype/ttf-liberation/LiberationMono-Regular.ttf'
p39
aS'/usr/share/fonts/truetype/openoffice/opens___.ttf'
p40
aS'/home/esheldon/.fonts/Monaco_Linux.ttf'
p41
aS'/usr/share/fonts/truetype/ttf-dejavu/DejaVuSerifCondensed-Bold.ttf'
p42
aS'/usr/share/fonts/truetype/ttf-liberation/LiberationSerif-Bold.ttf'
p43
aS'/usr/share/fonts/truetype/ttf-liberation/LiberationMono-Italic.ttf'
p44
aS'/usr/share/fonts/truetype/ttf-dejavu/DejaVuSerif-Bold.ttf'
p45
aS'/usr/share/fonts/truetype/ttf-liberation/LiberationSerif-BoldItalic.ttf'
p46
aS'/usr/share/fonts/truetype/ttf-dejavu/DejaVuSerif-Italic.ttf'
p47
aS'/usr/share/fonts/truetype/ttf-liberation/LiberationSerif-Italic.ttf'
p48
aS'/usr/share/fonts/truetype/ttf-dejavu/DejaVuSerifCondensed.ttf'
p49
aS'/usr/share/fonts/truetype/ttf-liberation/LiberationMono-BoldItalic.ttf'
p50
aS'/usr/share/fonts/truetype/ttf-dejavu/DejaVuSerif.ttf'
p51
aS'/usr/share/fonts/truetype/ttf-liberation/LiberationSans-BoldItalic.ttf'
p52
aS'/usr/share/fonts/truetype/ttf-dejavu/DejaVuSans-Oblique.ttf'
p53
aS'/usr/share/fonts/truetype/ttf-dejavu/DejaVuSans.ttf'
p54
aS'/usr/share/fonts/truetype/ttf-liberation/LiberationSerif-Regular.ttf'
p55
aS'/usr/share/fonts/truetype/ttf-dejavu/DejaVuSans-BoldOblique.ttf'
p56
aS'/usr/share/fonts/truetype/ttf-liberation/LiberationSans-Italic.ttf'
p57
aS'/usr/share/fonts/truetype/ttf-dejavu/DejaVuSansMono-BoldOblique.ttf'
p58
aS'/usr/share/fonts/truetype/ttf-dejavu/DejaVuSansCondensed-BoldOblique.ttf'
p59
aS'/usr/share/fonts/truetype/ttf-dejavu/DejaVuSansCondensed-Bold.ttf'
p60
aS'/usr/share/fonts/truetype/ttf-dejavu/DejaVuSans-Bold.ttf'
p61
aS'/usr/share/fonts/truetype/ttf-dejavu/DejaVuSans-ExtraLight.ttf'
p62
aS'/usr/share/fonts/truetype/ttf-liberation/LiberationSans-Regular.ttf'
p63
asS'_FontManager__default_weight'
p64
S'normal'
p65
sS'default_size'
p66
NsS'defaultFont'
p67
g5
sS'afmdict'
p68
(dp69
S'ITC Zapf Dingbats'
p70
(dp71
g65
(dp72
g65
(dp73
I500
(dp74
g65
(dp75
S'scalable'
p76
S'/usr/share/matplotlib/mpl-data/fonts/afm/pzdr.afm'
p77
ssssssS'LMTypewriter10'
p78
(dp79
S'italic'
p80
(dp81
g65
(dp82
I400
(dp83
g65
(dp84
g76
S'/usr/share/fonts/X11/Type1/lmtcso10.afm'
p85
sssI200
(dp86
g65
(dp87
g76
S'/usr/share/fonts/X11/Type1/lmtlco10.afm'
p88
sssI700
(dp89
g65
(dp90
g76
S'/usr/share/fonts/X11/Type1/lmtko10.afm'
p91
sssssg65
(dp92
g65
(dp93
I400
(dp94
g65
(dp95
g76
S'/usr/share/fonts/X11/Type1/lmtcsc10.afm'
p96
sssI200
(dp97
g65
(dp98
g76
S'/usr/share/fonts/X11/Type1/lmtlc10.afm'
p99
sssI700
(dp100
g65
(dp101
g76
S'/usr/share/fonts/X11/Type1/lmtk10.afm'
p102
ssssssS'New Century Schoolbook'
p103
(dp104
g80
(dp105
g65
(dp106
I700
(dp107
g65
(dp108
g76
S'/usr/share/matplotlib/mpl-data/fonts/afm/pncbi8a.afm'
p109
sssI500
(dp110
g65
(dp111
g76
S'/usr/share/matplotlib/mpl-data/fonts/afm/pncri8a.afm'
p112
sssssg65
(dp113
g65
(dp114
I500
(dp115
g65
(dp116
g76
S'/usr/share/matplotlib/mpl-data/fonts/afm/pncr8a.afm'
p117
sssI700
(dp118
g65
(dp119
g76
S'/usr/share/matplotlib/mpl-data/fonts/afm/pncb8a.afm'
p120
ssssssS'Helvetica'
p121
(dp122
g80
(dp123
g65
(dp124
I200
(dp125
g65
(dp126
g76
S'/usr/share/matplotlib/mpl-data/fonts/afm/phvlo8a.afm'
p127
sssI700
(dp128
g65
(dp129
g76
S'/usr/share/matplotlib/mpl-data/fonts/afm/phvbo8a.afm'
p130
sssI500
(dp131
g65
(dp132
g76
S'/usr/share/matplotlib/mpl-data/fonts/afm/phvro8a.afm'
p133
sssssg65
(dp134
g65
(dp135
I200
(dp136
g65
(dp137
g76
S'/usr/share/matplotlib/mpl-data/fonts/afm/phvl8a.afm'
p138
sssI700
(dp139
g65
(dp140
g76
S'/usr/share/matplotlib/mpl-data/fonts/afm/phvb8an.afm'
p141
sssI500
(dp142
g65
(dp143
g76
S'/usr/share/matplotlib/mpl-data/fonts/afm/phvr8an.afm'
p144
ssssssS'Nimbus Roman No9 L'
p145
(dp146
g80
(dp147
g65
(dp148
I400
(dp149
g65
(dp150
g76
S'/usr/share/fonts/type1/gsfonts/n021023l.afm'
p151
sssI700
(dp152
g65
(dp153
g76
S'/usr/share/fonts/type1/gsfonts/n021024l.afm'
p154
sssssg65
(dp155
g65
(dp156
I400
(dp157
g65
(dp158
g76
S'/usr/share/fonts/type1/gsfonts/n021003l.afm'
p159
sssI700
(dp160
g65
(dp161
g76
S'/usr/share/fonts/type1/gsfonts/n021004l.afm'
p162
ssssssS'LMRoman10'
p163
(dp164
g80
(dp165
g65
(dp166
I400
(dp167
g65
(dp168
g76
S'/usr/share/fonts/X11/Type1/lmro10.afm'
p169
sssI600
(dp170
g65
(dp171
g76
S'/usr/share/fonts/X11/Type1/lmbo10.afm'
p172
sssI700
(dp173
g65
(dp174
g76
S'/usr/share/fonts/X11/Type1/lmbxo10.afm'
p175
sssssg65
(dp176
g65
(dp177
I400
(dp178
g65
(dp179
g76
S'/usr/share/fonts/X11/Type1/lmu10.afm'
p180
sssI600
(dp181
g65
(dp182
g76
S'/usr/share/fonts/X11/Type1/lmb10.afm'
p183
sssI700
(dp184
g65
(dp185
g76
S'/usr/share/fonts/X11/Type1/lmbx10.afm'
p186
ssssssS'ITC Bookman'
p187
(dp188
g80
(dp189
g65
(dp190
I200
(dp191
g65
(dp192
g76
S'/usr/share/matplotlib/mpl-data/fonts/afm/pbkli8a.afm'
p193
sssI600
(dp194
g65
(dp195
g76
S'/usr/share/matplotlib/mpl-data/fonts/afm/pbkdi8a.afm'
p196
sssssg65
(dp197
g65
(dp198
I600
(dp199
g65
(dp200
g76
S'/usr/share/matplotlib/mpl-data/fonts/afm/pbkd8a.afm'
p201
sssI200
(dp202
g65
(dp203
g76
S'/usr/share/matplotlib/mpl-data/fonts/afm/pbkl8a.afm'
p204
ssssssS'LMSansQuotation8'
p205
(dp206
g80
(dp207
g65
(dp208
I400
(dp209
g65
(dp210
g76
S'/usr/share/fonts/X11/Type1/lmssqo8.afm'
p211
sssI700
(dp212
g65
(dp213
g76
S'/usr/share/fonts/X11/Type1/lmssqbo8.afm'
p214
sssssg65
(dp215
g65
(dp216
I400
(dp217
g65
(dp218
g76
S'/usr/share/fonts/X11/Type1/lmssq8.afm'
p219
sssI700
(dp220
g65
(dp221
g76
S'/usr/share/fonts/X11/Type1/lmssqbx8.afm'
p222
ssssssS'LMSans10'
p223
(dp224
g80
(dp225
g65
(dp226
I600
(dp227
g65
(dp228
g76
S'/usr/share/fonts/X11/Type1/lmssdo10.afm'
p229
sssI400
(dp230
g65
(dp231
g76
S'/usr/share/fonts/X11/Type1/lmsso10.afm'
p232
sssI700
(dp233
g65
(dp234
g76
S'/usr/share/fonts/X11/Type1/lmssbo10.afm'
p235
sssssg65
(dp236
g65
(dp237
I400
(dp238
g65
(dp239
g76
S'/usr/share/fonts/X11/Type1/lmss10.afm'
p240
sssI600
(dp241
g65
(dp242
g76
S'/usr/share/fonts/X11/Type1/lmssdc10.afm'
p243
sssI700
(dp244
g65
(dp245
g76
S'/usr/share/fonts/X11/Type1/lmssbx10.afm'
p246
ssssssS'Palatino'
p247
(dp248
g80
(dp249
g65
(dp250
I500
(dp251
g65
(dp252
g76
S'/usr/share/matplotlib/mpl-data/fonts/afm/pplri8a.afm'
p253
sssI700
(dp254
g65
(dp255
g76
S'/usr/share/matplotlib/mpl-data/fonts/afm/pplbi8a.afm'
p256
sssssg65
(dp257
g65
(dp258
I500
(dp259
g65
(dp260
g76
S'/usr/share/matplotlib/mpl-data/fonts/afm/pplr8a.afm'
p261
sssI700
(dp262
g65
(dp263
g76
S'/usr/share/matplotlib/mpl-data/fonts/afm/pplb8a.afm'
p264
ssssssS'Dingbats'
p265
(dp266
g65
(dp267
g65
(dp268
I400
(dp269
g65
(dp270
g76
S'/usr/share/fonts/type1/gsfonts/d050000l.afm'
p271
ssssssS'URW Bookman L'
p272
(dp273
g80
(dp274
g65
(dp275
I400
(dp276
g65
(dp277
g76
S'/usr/share/fonts/type1/gsfonts/b018032l.afm'
p278
sssI700
(dp279
g65
(dp280
g76
S'/usr/share/fonts/type1/gsfonts/b018035l.afm'
p281
sssssg65
(dp282
g65
(dp283
I400
(dp284
g65
(dp285
g76
S'/usr/share/fonts/type1/gsfonts/b018012l.afm'
p286
sssI700
(dp287
g65
(dp288
g76
S'/usr/share/fonts/type1/gsfonts/b018015l.afm'
p289
ssssssS'LMTypewriterVarWd10'
p290
(dp291
g80
(dp292
g65
(dp293
I200
(dp294
g65
(dp295
g76
S'/usr/share/fonts/X11/Type1/lmvtlo10.afm'
p296
sssI400
(dp297
g65
(dp298
g76
S'/usr/share/fonts/X11/Type1/lmvtto10.afm'
p299
sssI700
(dp300
g65
(dp301
g76
S'/usr/share/fonts/X11/Type1/lmvtko10.afm'
p302
sssssg65
(dp303
g65
(dp304
I400
(dp305
g65
(dp306
g76
S'/usr/share/fonts/X11/Type1/lmvtt10.afm'
p307
sssI200
(dp308
g65
(dp309
g76
S'/usr/share/fonts/X11/Type1/lmvtl10.afm'
p310
sssI700
(dp311
g65
(dp312
g76
S'/usr/share/fonts/X11/Type1/lmvtk10.afm'
p313
ssssssS'ITC Avant Garde Gothic'
p314
(dp315
g80
(dp316
g65
(dp317
I600
(dp318
g65
(dp319
g76
S'/usr/share/matplotlib/mpl-data/fonts/afm/pagdo8a.afm'
p320
sssI400
(dp321
g65
(dp322
g76
S'/usr/share/matplotlib/mpl-data/fonts/afm/pagko8a.afm'
p323
sssssg65
(dp324
g65
(dp325
I400
(dp326
g65
(dp327
g76
S'/usr/share/matplotlib/mpl-data/fonts/afm/pagk8a.afm'
p328
sssI600
(dp329
g65
(dp330
g76
S'/usr/share/matplotlib/mpl-data/fonts/afm/pagd8a.afm'
p331
ssssssS'Courier'
p332
(dp333
g80
(dp334
g65
(dp335
I500
(dp336
g65
(dp337
g76
S'/usr/share/matplotlib/mpl-data/fonts/afm/pcrro8a.afm'
p338
sssI700
(dp339
g65
(dp340
g76
S'/usr/share/matplotlib/mpl-data/fonts/afm/pcrbo8a.afm'
p341
sssssg65
(dp342
g65
(dp343
I500
(dp344
g65
(dp345
g76
S'/usr/share/matplotlib/mpl-data/fonts/afm/pcrr8a.afm'
p346
sssI700
(dp347
g65
(dp348
g76
S'/usr/share/matplotlib/mpl-data/fonts/afm/pcrb8a.afm'
p349
ssssssS'Symbol'
p350
(dp351
g65
(dp352
g65
(dp353
I500
(dp354
g65
(dp355
g76
S'/usr/share/matplotlib/mpl-data/fonts/afm/psyr.afm'
p356
ssssssS'Computer Modern'
p357
(dp358
g80
(dp359
g65
(dp360
I500
(dp361
g65
(dp362
g76
S'/usr/share/matplotlib/mpl-data/fonts/afm/cmmi10.afm'
p363
sssssg65
(dp364
g65
(dp365
I500
(dp366
g65
(dp367
g76
S'/usr/share/matplotlib/mpl-data/fonts/afm/cmex10.afm'
p368
ssssssS'URW Palladio L'
p369
(dp370
g80
(dp371
g65
(dp372
I400
(dp373
g65
(dp374
g76
S'/usr/share/fonts/type1/gsfonts/p052023l.afm'
p375
sssI700
(dp376
g65
(dp377
g76
S'/usr/share/fonts/type1/gsfonts/p052024l.afm'
p378
sssssg65
(dp379
g65
(dp380
I500
(dp381
g65
(dp382
g76
S'/usr/share/fonts/type1/gsfonts/p052003l.afm'
p383
sssI700
(dp384
g65
(dp385
g76
S'/usr/share/fonts/type1/gsfonts/p052004l.afm'
p386
ssssssS'URW Chancery L'
p387
(dp388
g80
(dp389
g65
(dp390
I500
(dp391
g65
(dp392
g76
S'/usr/share/fonts/type1/gsfonts/z003034l.afm'
p393
ssssssS'Nimbus Sans L'
p394
(dp395
g80
(dp396
g65
(dp397
I400
(dp398
g65
(dp399
g76
S'/usr/share/fonts/type1/gsfonts/n019063l.afm'
p400
sssI700
(dp401
g65
(dp402
g76
S'/usr/share/fonts/type1/gsfonts/n019064l.afm'
p403
sssssg65
(dp404
g65
(dp405
I400
(dp406
g65
(dp407
g76
S'/usr/share/fonts/type1/gsfonts/n019043l.afm'
p408
sssI700
(dp409
g65
(dp410
g76
S'/usr/share/fonts/type1/gsfonts/n019004l.afm'
p411
ssssssS'Nimbus Mono L'
p412
(dp413
g80
(dp414
g65
(dp415
I400
(dp416
g65
(dp417
g76
S'/usr/share/fonts/type1/gsfonts/n022023l.afm'
p418
sssI700
(dp419
g65
(dp420
g76
S'/usr/share/fonts/type1/gsfonts/n022024l.afm'
p421
sssssg65
(dp422
g65
(dp423
I400
(dp424
g65
(dp425
g76
S'/usr/share/fonts/type1/gsfonts/n022003l.afm'
p426
sssI700
(dp427
g65
(dp428
g76
S'/usr/share/fonts/type1/gsfonts/n022004l.afm'
p429
ssssssS'Times'
p430
(dp431
g80
(dp432
g65
(dp433
I700
(dp434
g65
(dp435
g76
S'/usr/share/matplotlib/mpl-data/fonts/afm/ptmbi8a.afm'
p436
sssI500
(dp437
g65
(dp438
g76
S'/usr/share/matplotlib/mpl-data/fonts/afm/ptmri8a.afm'
p439
sssssg65
(dp440
g65
(dp441
I500
(dp442
g65
(dp443
g76
S'/usr/share/matplotlib/mpl-data/fonts/afm/ptmr8a.afm'
p444
sssI700
(dp445
g65
(dp446
g76
S'/usr/share/matplotlib/mpl-data/fonts/afm/ptmb8a.afm'
p447
ssssssS'Utopia'
p448
(dp449
g80
(dp450
g65
(dp451
I400
(dp452
g65
(dp453
g76
S'/usr/share/matplotlib/mpl-data/fonts/afm/putri8a.afm'
p454
sssI700
(dp455
g65
(dp456
g76
S'/usr/share/matplotlib/mpl-data/fonts/afm/putbi8a.afm'
p457
sssssg65
(dp458
g65
(dp459
I400
(dp460
g65
(dp461
g76
S'/usr/share/matplotlib/mpl-data/fonts/afm/putr8a.afm'
p462
sssI700
(dp463
g65
(dp464
g76
S'/usr/share/matplotlib/mpl-data/fonts/afm/putb8a.afm'
p465
ssssssS'ITC Zapf Chancery'
p466
(dp467
g80
(dp468
g65
(dp469
I500
(dp470
g65
(dp471
g76
S'/usr/share/matplotlib/mpl-data/fonts/afm/pzcmi8a.afm'
p472
ssssssS'Courier 10 Pitch'
p473
(dp474
g80
(dp475
g65
(dp476
I400
(dp477
g65
(dp478
g76
S'/usr/share/fonts/X11/Type1/c0582bt_.afm'
p479
sssI700
(dp480
g65
(dp481
g76
S'/usr/share/fonts/X11/Type1/c0611bt_.afm'
p482
sssssg65
(dp483
g65
(dp484
I400
(dp485
g65
(dp486
g76
S'/usr/share/fonts/X11/Type1/c0419bt_.afm'
p487
sssI700
(dp488
g65
(dp489
g76
S'/usr/share/fonts/X11/Type1/c0583bt_.afm'
p490
ssssssS'Bitstream Charter'
p491
(dp492
g80
(dp493
g65
(dp494
I400
(dp495
g65
(dp496
g76
S'/usr/share/fonts/X11/Type1/c0649bt_.afm'
p497
sssI700
(dp498
g65
(dp499
g76
S'/usr/share/fonts/X11/Type1/c0633bt_.afm'
p500
sssssg65
(dp501
g65
(dp502
I400
(dp503
g65
(dp504
g76
S'/usr/share/fonts/X11/Type1/c0648bt_.afm'
p505
sssI700
(dp506
g65
(dp507
g76
S'/usr/share/fonts/X11/Type1/c0632bt_.afm'
p508
ssssssS'Standard Symbols L'
p509
(dp510
g65
(dp511
g65
(dp512
I400
(dp513
g65
(dp514
g76
S'/usr/share/fonts/type1/gsfonts/s050000l.afm'
p515
ssssssS'URW Gothic L'
p516
(dp517
g80
(dp518
g65
(dp519
I400
(dp520
g65
(dp521
g76
S'/usr/share/fonts/type1/gsfonts/a010033l.afm'
p522
sssI600
(dp523
g65
(dp524
g76
S'/usr/share/fonts/type1/gsfonts/a010035l.afm'
p525
sssssg65
(dp526
g65
(dp527
I400
(dp528
g65
(dp529
g76
S'/usr/share/fonts/type1/gsfonts/a010013l.afm'
p530
sssI600
(dp531
g65
(dp532
g76
S'/usr/share/fonts/type1/gsfonts/a010015l.afm'
p533
ssssssS'Century Schoolbook L'
p534
(dp535
g80
(dp536
g65
(dp537
I400
(dp538
g65
(dp539
g76
S'/usr/share/fonts/type1/gsfonts/c059033l.afm'
p540
sssI700
(dp541
g65
(dp542
g76
S'/usr/share/fonts/type1/gsfonts/c059036l.afm'
p543
sssssg65
(dp544
g65
(dp545
I700
(dp546
g65
(dp547
g76
S'/usr/share/fonts/type1/gsfonts/c059016l.afm'
p548
sssI500
(dp549
g65
(dp550
g76
S'/usr/share/fonts/type1/gsfonts/c059013l.afm'
p551
sssssssS'afmfiles'
p552
(lp553
g138
ag472
ag264
ag457
aS'/usr/share/matplotlib/mpl-data/fonts/afm/phvro8an.afm'
p554
ag201
ag112
ag447
ag349
ag320
ag346
ag133
ag109
aS'/usr/share/matplotlib/mpl-data/fonts/afm/phvr8a.afm'
p555
aS'/usr/share/matplotlib/mpl-data/fonts/afm/cmtt10.afm'
p556
ag144
ag341
ag444
ag256
aS'/usr/share/matplotlib/mpl-data/fonts/afm/cmsy10.afm'
p557
ag328
ag465
ag363
ag323
aS'/usr/share/matplotlib/mpl-data/fonts/afm/phvbo8an.afm'
p558
ag130
aS'/usr/share/matplotlib/mpl-data/fonts/afm/cmr10.afm'
p559
ag120
ag127
aS'/usr/share/matplotlib/mpl-data/fonts/afm/phvb8a.afm'
p560
ag77
ag439
ag261
ag204
ag338
ag356
ag253
ag436
ag193
ag462
ag331
ag117
ag368
ag196
ag454
ag141
ag154
aS'/usr/share/fonts/type1/gsfonts/n019024l.afm'
p561
ag162
ag240
aS'/usr/share/fonts/X11/Type1/lmtt10.afm'
p562
ag296
ag515
ag271
ag386
ag302
ag211
ag286
ag426
ag219
ag551
ag522
aS'/usr/share/fonts/type1/gsfonts/n019044l.afm'
p563
ag393
ag96
ag421
aS'/usr/share/fonts/X11/Type1/lmbxi10.afm'
p564
ag540
aS'/usr/share/fonts/X11/Type1/lmcsco10.afm'
p565
ag246
ag500
ag299
aS'/usr/share/fonts/X11/Type1/lmdunh10.afm'
p566
ag497
ag186
ag403
aS'/usr/share/fonts/type1/gsfonts/n019003l.afm'
p567
aS'/usr/share/fonts/X11/Type1/lmtto10.afm'
p568
ag378
ag281
ag307
aS'/usr/share/fonts/X11/Type1/lmduno10.afm'
p569
ag530
ag479
ag229
ag429
ag490
ag310
aS'/usr/share/fonts/X11/Type1/lmtti10.afm'
p570
ag235
ag525
ag408
ag243
aS'/usr/share/fonts/X11/Type1/lmcsc10.afm'
p571
aS'/usr/share/fonts/type1/gsfonts/n019023l.afm'
p572
aS'/usr/share/fonts/X11/Type1/lmtl10.afm'
p573
ag91
ag400
ag482
ag172
ag375
aS'/usr/share/fonts/X11/Type1/lmri10.afm'
p574
ag411
ag214
ag383
aS'/usr/share/fonts/X11/Type1/lmr10.afm'
p575
ag533
ag222
ag169
ag102
ag543
ag278
ag313
ag548
ag505
ag418
ag99
ag151
aS'/usr/share/fonts/X11/Type1/lmtlo10.afm'
p576
ag183
ag487
ag85
ag159
ag232
ag289
ag180
ag88
ag508
ag175
asS'ttfdict'
p577
(dp578
S'cmsy10'
p579
(dp580
g65
(dp581
g65
(dp582
I400
(dp583
g65
(dp584
g76
g19
ssssssS'cmb10'
p585
(dp586
g65
(dp587
g65
(dp588
I400
(dp589
g65
(dp590
g76
g5
ssssssS'DejaVu Sans Mono'
p591
(dp592
S'oblique'
p593
(dp594
g65
(dp595
I400
(dp596
g65
(dp597
g76
g38
sssI700
(dp598
g65
(dp599
g76
g58
sssssg65
(dp600
g65
(dp601
I400
(dp602
g65
(dp603
g76
g37
sssI700
(dp604
g65
(dp605
g76
g30
ssssssS'Liberation Serif'
p606
(dp607
g80
(dp608
g65
(dp609
I400
(dp610
g65
(dp611
g76
g48
sssI700
(dp612
g65
(dp613
g76
g46
sssssg65
(dp614
g65
(dp615
I400
(dp616
g65
(dp617
g76
g55
sssI700
(dp618
g65
(dp619
g76
g43
ssssssS'STIXGeneral'
p620
(dp621
g80
(dp622
g65
(dp623
I400
(dp624
g65
(dp625
g76
g22
sssI700
(dp626
g65
(dp627
g76
g28
sssssg65
(dp628
g65
(dp629
I400
(dp630
g65
(dp631
g76
g11
sssI700
(dp632
g65
(dp633
g76
g16
ssssssS'cmr10'
p634
(dp635
g65
(dp636
g65
(dp637
I400
(dp638
g65
(dp639
g76
g23
ssssssS'Liberation Sans'
p640
(dp641
g80
(dp642
g65
(dp643
I400
(dp644
g65
(dp645
g76
g57
sssI700
(dp646
g65
(dp647
g76
g52
sssssg65
(dp648
g65
(dp649
I400
(dp650
g65
(dp651
g76
g63
sssI700
(dp652
g65
(dp653
g76
g29
ssssssS'Liberation Mono'
p654
(dp655
g80
(dp656
g65
(dp657
I400
(dp658
g65
(dp659
g76
g44
sssI700
(dp660
g65
(dp661
g76
g50
sssssg65
(dp662
g65
(dp663
I400
(dp664
g65
(dp665
g76
g39
sssI700
(dp666
g65
(dp667
g76
g34
ssssssS'STIXSize4'
p668
(dp669
g65
(dp670
g65
(dp671
I400
(dp672
g65
(dp673
g76
g24
sssI700
(dp674
g65
(dp675
g76
g17
ssssssS'STIXSize5'
p676
(dp677
g65
(dp678
g65
(dp679
I400
(dp680
g65
(dp681
g76
g9
ssssssS'STIXSize2'
p682
(dp683
g65
(dp684
g65
(dp685
I400
(dp686
g65
(dp687
g76
g15
sssI700
(dp688
g65
(dp689
g76
g18
ssssssS'STIXSize3'
p690
(dp691
g65
(dp692
g65
(dp693
I400
(dp694
g65
(dp695
g76
g14
sssI700
(dp696
g65
(dp697
g76
g13
ssssssS'STIXSize1'
p698
(dp699
g65
(dp700
g65
(dp701
I400
(dp702
g65
(dp703
g76
g25
sssI700
(dp704
g65
(dp705
g76
g21
ssssssS'DejaVu Sans'
p706
(dp707
g593
(dp708
g65
(dp709
I400
(dp710
S'condensed'
p711
(dp712
g76
g31
ssg65
(dp713
g76
g53
sssI700
(dp714
g711
(dp715
g76
g59
ssg65
(dp716
g76
g56
sssssg65
(dp717
g65
(dp718
I400
(dp719
g711
(dp720
g76
g32
ssg65
(dp721
g76
g54
sssI200
(dp722
g65
(dp723
g76
g62
sssI700
(dp724
g711
(dp725
g76
g60
ssg65
(dp726
g76
g61
ssssssS'Monaco'
p727
(dp728
g65
(dp729
g65
(dp730
I400
(dp731
g65
(dp732
g76
g41
ssssssS'cmtt10'
p733
(dp734
g65
(dp735
g65
(dp736
I400
(dp737
g65
(dp738
g76
g10
ssssssS'cmex10'
p739
(dp740
g65
(dp741
g65
(dp742
I400
(dp743
g65
(dp744
g76
g6
ssssssS'cmss10'
p745
(dp746
g65
(dp747
g65
(dp748
I400
(dp749
g65
(dp750
g76
g20
ssssssS'STIXNonUnicode'
p751
(dp752
g80
(dp753
g65
(dp754
I400
(dp755
g65
(dp756
g76
g7
sssI700
(dp757
g65
(dp758
g76
g12
sssssg65
(dp759
g65
(dp760
I400
(dp761
g65
(dp762
g76
g8
sssI700
(dp763
g65
(dp764
g76
g27
ssssssS'OpenSymbol'
p765
(dp766
g65
(dp767
g65
(dp768
I400
(dp769
g65
(dp770
g76
g40
ssssssS'DejaVu Serif'
p771
(dp772
g80
(dp773
g65
(dp774
I400
(dp775
g711
(dp776
g76
g33
ssg65
(dp777
g76
g47
sssI700
(dp778
g711
(dp779
g76
g36
ssg65
(dp780
g76
g35
sssssg65
(dp781
g65
(dp782
I400
(dp783
g711
(dp784
g76
g49
ssg65
(dp785
g76
g51
sssI700
(dp786
g711
(dp787
g76
g42
ssg65
(dp788
g76
g45
ssssssS'cmmi10'
p789
(dp790
g65
(dp791
g65
(dp792
I400
(dp793
g65
(dp794
g76
g26
sssssssb.